; Function Attrs: nounwind uwtable
define hidden void @zim_DOMElement_insertAdjacentElement(ptr nocapture noundef readonly %0, ptr noundef %1) local_unnamed_addr #0 {
  %3 = alloca ptr, align 8
  %4 = alloca ptr, align 8
  %5 = getelementptr inbounds i8, ptr %0, i64 44
  %6 = load i32, ptr %5, align 4
  %7 = load ptr, ptr @dom_element_class_entry, align 8
  %8 = call i32 (i32, ptr, ...) @zend_parse_parameters(i32 noundef %6, ptr noundef nonnull @.str.19, ptr noundef nonnull %3, ptr noundef nonnull %4, ptr noundef %7) #8
  %9 = icmp eq i32 %8, -1
  br i1 %9, label %10, label %13

10:                                               ; preds = %2
  %11 = load ptr, ptr getelementptr inbounds (%struct._zend_executor_globals, ptr @executor_globals, i64 0, i32 50), align 8
  %12 = icmp ne ptr %11, null
  call void @llvm.assume(i1 %12)
  br label %53

13:                                               ; preds = %2
  %14 = getelementptr inbounds i8, ptr %0, i64 32
  %15 = load ptr, ptr %14, align 8
  %16 = getelementptr inbounds i8, ptr %15, i64 -24
  %17 = load ptr, ptr %16, align 8
  %18 = icmp eq ptr %17, null
  br i1 %18, label %19, label %27

19:                                               ; preds = %13
  %20 = getelementptr inbounds i8, ptr %15, i64 16
  %21 = load ptr, ptr %20, align 8
  %22 = getelementptr inbounds i8, ptr %21, i64 8
  %23 = load ptr, ptr %22, align 8
  %24 = getelementptr inbounds i8, ptr %23, i64 24
  call void (ptr, ptr, ...) @zend_throw_error(ptr noundef null, ptr noundef nonnull @.str.5, ptr noundef nonnull %24) #8
  %25 = load ptr, ptr getelementptr inbounds (%struct._zend_executor_globals, ptr @executor_globals, i64 0, i32 50), align 8
  %26 = icmp ne ptr %25, null
  call void @llvm.assume(i1 %26)
  br label %53

27:                                               ; preds = %13
  %28 = load ptr, ptr %4, align 8
  %29 = load ptr, ptr %28, align 8
  %30 = getelementptr inbounds i8, ptr %29, i64 -24
  %31 = load ptr, ptr %30, align 8
  %32 = icmp eq ptr %31, null
  br i1 %32, label %33, label %41

33:                                               ; preds = %27
  %34 = getelementptr inbounds i8, ptr %29, i64 16
  %35 = load ptr, ptr %34, align 8
  %36 = getelementptr inbounds i8, ptr %35, i64 8
  %37 = load ptr, ptr %36, align 8
  %38 = getelementptr inbounds i8, ptr %37, i64 24
  call void (ptr, ptr, ...) @zend_throw_error(ptr noundef null, ptr noundef nonnull @.str.5, ptr noundef nonnull %38) #8
  %39 = load ptr, ptr getelementptr inbounds (%struct._zend_executor_globals, ptr @executor_globals, i64 0, i32 50), align 8
  %40 = icmp ne ptr %39, null
  call void @llvm.assume(i1 %40)
  br label %53

41:                                               ; preds = %27
  %42 = load ptr, ptr %17, align 8
  %43 = load ptr, ptr %31, align 8
  %44 = load ptr, ptr %3, align 8
  %45 = call fastcc ptr @dom_insert_adjacent(ptr noundef %44, ptr noundef %42, ptr noundef nonnull %16, ptr noundef %43)
  %magicptr = ptrtoint ptr %45 to i64
  switch i64 %magicptr, label %48 [
    i64 0, label %46
    i64 -1, label %50
  ]

46:                                               ; preds = %41
  %47 = getelementptr inbounds i8, ptr %1, i64 8
  store i32 1, ptr %47, align 8
  br label %53

48:                                               ; preds = %41
  %49 = call zeroext i1 @php_dom_create_object(ptr noundef %43, ptr noundef %1, ptr noundef nonnull %30) #8
  br label %53

50:                                               ; preds = %41
  %51 = load ptr, ptr getelementptr inbounds (%struct._zend_executor_globals, ptr @executor_globals, i64 0, i32 50), align 8
  %52 = icmp ne ptr %51, null
  call void @llvm.assume(i1 %52)
  br label %53

53:                                               ; preds = %48, %50, %46, %33, %19, %10
  ret void
}